target datalayout = "e-m:e-p270:32:32-p271:32:32-p272:64:64-i64:64-i128:128-f80:128-n8:16:32:64-S128"
target triple = "x86_64-unknown-linux-gnu"

%"struct.std::pair" = type { i32, i32 }
%"class.folly::Range" = type { ptr, ptr }
%"class.proxygen::HPACKHeader" = type { %"class.proxygen::HPACKHeaderName", %"class.folly::basic_fbstring" }
%"class.proxygen::HPACKHeaderName" = type { ptr }
%"class.folly::basic_fbstring" = type { %"class.folly::fbstring_core" }
%"class.folly::fbstring_core" = type { %union.anon }
%union.anon = type { %"struct.folly::fbstring_core<char>::MediumLarge" }
%"struct.folly::fbstring_core<char>::MediumLarge" = type { ptr, i64, i64 }

; Function Attrs: mustprogress nounwind uwtable
define linkonce_odr noundef zeroext i8 @_ZNK5folly13fbstring_coreIcE8categoryEv(ptr noundef nonnull align 8 dereferenceable(24) %this) #5 comdat align 2 {
entry:
  %this.addr = alloca ptr, align 8
  store ptr %this, ptr %this.addr, align 8
  %this1 = load ptr, ptr %this.addr, align 8
  %0 = getelementptr inbounds %"class.folly::fbstring_core", ptr %this1, i32 0, i32 0
  %arrayidx = getelementptr inbounds [24 x i8], ptr %0, i64 0, i64 23
  %1 = load i8, ptr %arrayidx, align 1
  %conv = zext i8 %1 to i32
  %and = and i32 %conv, 192
  %conv2 = trunc i32 %and to i8
  ret i8 %conv2
}

; Function Attrs: mustprogress uwtable
define linkonce_odr noundef ptr @_ZNK5folly13fbstring_coreIcE5c_strEv(ptr noundef nonnull align 8 dereferenceable(24) %this) #4 comdat align 2 {
entry:
  %this.addr = alloca ptr, align 8
  %ptr = alloca ptr, align 8
  store ptr %this, ptr %this.addr, align 8
  %this1 = load ptr, ptr %this.addr, align 8
  %0 = getelementptr inbounds %"class.folly::fbstring_core", ptr %this1, i32 0, i32 0
  %data_ = getelementptr inbounds %"struct.folly::fbstring_core<char>::MediumLarge", ptr %0, i32 0, i32 0
  %1 = load ptr, ptr %data_, align 8
  store ptr %1, ptr %ptr, align 8
  %call = call noundef zeroext i8 @_ZNK5folly13fbstring_coreIcE8categoryEv(ptr noundef nonnull align 8 dereferenceable(24) %this1)
  %cmp = icmp eq i8 %call, 0
  br i1 %cmp, label %cond.true, label %cond.false

cond.true:                                        ; preds = %entry
  %2 = getelementptr inbounds %"class.folly::fbstring_core", ptr %this1, i32 0, i32 0
  %arraydecay = getelementptr inbounds [24 x i8], ptr %2, i64 0, i64 0
  br label %cond.end

cond.false:                                       ; preds = %entry
  %3 = load ptr, ptr %ptr, align 8
  br label %cond.end

cond.end:                                         ; preds = %cond.false, %cond.true
  %cond = phi ptr [ %arraydecay, %cond.true ], [ %3, %cond.false ]
  store ptr %cond, ptr %ptr, align 8
  %4 = load ptr, ptr %ptr, align 8
  ret ptr %4
}

; Function Attrs: mustprogress nounwind uwtable
define linkonce_odr noundef i64 @_ZNK5folly13fbstring_coreIcE4sizeEv(ptr noundef nonnull align 8 dereferenceable(24) %this) #5 comdat align 2 {
entry:
  %this.addr = alloca ptr, align 8
  %ret = alloca i64, align 8
  %maybeSmallSize = alloca i64, align 8
  store ptr %this, ptr %this.addr, align 8
  %this1 = load ptr, ptr %this.addr, align 8
  %0 = getelementptr inbounds %"class.folly::fbstring_core", ptr %this1, i32 0, i32 0
  %size_ = getelementptr inbounds %"struct.folly::fbstring_core<char>::MediumLarge", ptr %0, i32 0, i32 1
  %1 = load i64, ptr %size_, align 8
  store i64 %1, ptr %ret, align 8
  %2 = getelementptr inbounds %"class.folly::fbstring_core", ptr %this1, i32 0, i32 0
  %arrayidx = getelementptr inbounds [24 x i8], ptr %2, i64 0, i64 23
  %3 = load i8, ptr %arrayidx, align 1
  %conv = zext i8 %3 to i64
  %sub = sub i64 23, %conv
  store i64 %sub, ptr %maybeSmallSize, align 8
  %4 = load i64, ptr %maybeSmallSize, align 8
  %cmp = icmp sge i64 %4, 0
  br i1 %cmp, label %cond.true, label %cond.false

cond.true:                                        ; preds = %entry
  %5 = load i64, ptr %maybeSmallSize, align 8
  br label %cond.end

cond.false:                                       ; preds = %entry
  %6 = load i64, ptr %ret, align 8
  br label %cond.end

cond.end:                                         ; preds = %cond.false, %cond.true
  %cond = phi i64 [ %5, %cond.true ], [ %6, %cond.false ]
  store i64 %cond, ptr %ret, align 8
  %7 = load i64, ptr %ret, align 8
  ret i64 %7
}

; Function Attrs: mustprogress uwtable
define linkonce_odr noundef ptr @_ZNK5folly14basic_fbstringIcSt11char_traitsIcESaIcENS_13fbstring_coreIcEEE5c_strEv(ptr noundef nonnull align 8 dereferenceable(24) %this) #4 comdat align 2 {
entry:
  %this.addr = alloca ptr, align 8
  store ptr %this, ptr %this.addr, align 8
  %this1 = load ptr, ptr %this.addr, align 8
  %store_ = getelementptr inbounds %"class.folly::basic_fbstring", ptr %this1, i32 0, i32 0
  %call = call noundef ptr @_ZNK5folly13fbstring_coreIcE5c_strEv(ptr noundef nonnull align 8 dereferenceable(24) %store_)
  ret ptr %call
}

; Function Attrs: mustprogress nounwind uwtable
define linkonce_odr void @_ZN5folly5RangeIPKcEC2ES2_m(ptr noundef nonnull align 8 dereferenceable(16) %this, ptr noundef %start, i64 noundef %size) unnamed_addr #5 comdat align 2 {
entry:
  %this.addr = alloca ptr, align 8
  %start.addr = alloca ptr, align 8
  %size.addr = alloca i64, align 8
  store ptr %this, ptr %this.addr, align 8
  store ptr %start, ptr %start.addr, align 8
  store i64 %size, ptr %size.addr, align 8
  %this1 = load ptr, ptr %this.addr, align 8
  %b_ = getelementptr inbounds %"class.folly::Range", ptr %this1, i32 0, i32 0
  %0 = load ptr, ptr %start.addr, align 8
  store ptr %0, ptr %b_, align 8
  %e_ = getelementptr inbounds %"class.folly::Range", ptr %this1, i32 0, i32 1
  %1 = load ptr, ptr %start.addr, align 8
  %2 = load i64, ptr %size.addr, align 8
  %add.ptr = getelementptr inbounds i8, ptr %1, i64 %2
  store ptr %add.ptr, ptr %e_, align 8
  ret void
}

; Function Attrs: mustprogress uwtable
define linkonce_odr noundef i64 @_ZNK5folly14basic_fbstringIcSt11char_traitsIcESaIcENS_13fbstring_coreIcEEE4sizeEv(ptr noundef nonnull align 8 dereferenceable(24) %this) #4 comdat align 2 {
entry:
  %this.addr = alloca ptr, align 8
  store ptr %this, ptr %this.addr, align 8
  %this1 = load ptr, ptr %this.addr, align 8
  %store_ = getelementptr inbounds %"class.folly::basic_fbstring", ptr %this1, i32 0, i32 0
  %call = call noundef i64 @_ZNK5folly13fbstring_coreIcE4sizeEv(ptr noundef nonnull align 8 dereferenceable(24) %store_)
  ret i64 %call
}

; Function Attrs: mustprogress uwtable
define linkonce_odr noundef ptr @_ZNK5folly14basic_fbstringIcSt11char_traitsIcESaIcENS_13fbstring_coreIcEEE4dataEv(ptr noundef nonnull align 8 dereferenceable(24) %this) #4 comdat align 2 {
entry:
  %this.addr = alloca ptr, align 8
  store ptr %this, ptr %this.addr, align 8
  %this1 = load ptr, ptr %this.addr, align 8
  %call = call noundef ptr @_ZNK5folly14basic_fbstringIcSt11char_traitsIcESaIcENS_13fbstring_coreIcEEE5c_strEv(ptr noundef nonnull align 8 dereferenceable(24) %this1)
  ret ptr %call
}

; Function Attrs: mustprogress uwtable
define linkonce_odr void @_ZN5folly5RangeIPKcEC2INS_14basic_fbstringIcSt11char_traitsIcESaIcENS_13fbstring_coreIcEEEEvS2_EERKT_(ptr noundef nonnull align 8 dereferenceable(16) %this, ptr noundef nonnull align 8 dereferenceable(24) %container) unnamed_addr #4 comdat align 2 {
entry:
  %this.addr = alloca ptr, align 8
  %container.addr = alloca ptr, align 8
  store ptr %this, ptr %this.addr, align 8
  store ptr %container, ptr %container.addr, align 8
  %this1 = load ptr, ptr %this.addr, align 8
  %0 = load ptr, ptr %container.addr, align 8
  %call = call noundef ptr @_ZNK5folly14basic_fbstringIcSt11char_traitsIcESaIcENS_13fbstring_coreIcEEE4dataEv(ptr noundef nonnull align 8 dereferenceable(24) %0)
  %1 = load ptr, ptr %container.addr, align 8
  %call2 = call noundef i64 @_ZNK5folly14basic_fbstringIcSt11char_traitsIcESaIcENS_13fbstring_coreIcEEE4sizeEv(ptr noundef nonnull align 8 dereferenceable(24) %1)
  call void @_ZN5folly5RangeIPKcEC2ES2_m(ptr noundef nonnull align 8 dereferenceable(16) %this1, ptr noundef %call, i64 noundef %call2)
  ret void
}

; Function Attrs: mustprogress uwtable
define i64 @_ZNK8proxygen12HPACKContext8getIndexERKNS_11HPACKHeaderE(ptr noundef nonnull align 8 dereferenceable(84) %this, ptr noundef nonnull align 8 dereferenceable(32) %header) #4 align 2 {
entry:
  %retval = alloca %"struct.std::pair", align 4
  %this.addr = alloca ptr, align 8
  %header.addr = alloca ptr, align 8
  %agg.tmp = alloca %"class.folly::Range", align 8
  store ptr %this, ptr %this.addr, align 8
  store ptr %header, ptr %header.addr, align 8
  %this1 = load ptr, ptr %this.addr, align 8
  %0 = load ptr, ptr %header.addr, align 8
  %name = getelementptr inbounds %"class.proxygen::HPACKHeader", ptr %0, i32 0, i32 0
  %1 = load ptr, ptr %header.addr, align 8
  %value = getelementptr inbounds %"class.proxygen::HPACKHeader", ptr %1, i32 0, i32 1
  call void @_ZN5folly5RangeIPKcEC2INS_14basic_fbstringIcSt11char_traitsIcESaIcENS_13fbstring_coreIcEEEEvS2_EERKT_(ptr noundef nonnull align 8 dereferenceable(16) %agg.tmp, ptr noundef nonnull align 8 dereferenceable(24) %value)
  %2 = getelementptr inbounds { ptr, ptr }, ptr %agg.tmp, i32 0, i32 0
  %3 = load ptr, ptr %2, align 8
  %4 = getelementptr inbounds { ptr, ptr }, ptr %agg.tmp, i32 0, i32 1
  %5 = load ptr, ptr %4, align 8
  %call = call i64 @_ZNK8proxygen12HPACKContext8getIndexERKNS_15HPACKHeaderNameEN5folly5RangeIPKcEEb(ptr noundef nonnull align 8 dereferenceable(84) %this1, ptr noundef nonnull align 8 dereferenceable(8) %name, ptr %3, ptr %5, i1 noundef zeroext true)
  store i64 %call, ptr %retval, align 4
  %6 = load i64, ptr %retval, align 4
  ret i64 %6
}