; Function Attrs: mustprogress uwtable
define i64 @_ZNK8proxygen12HPACKContext8getIndexERKNS_11HPACKHeaderE(ptr noundef nonnull align 8 dereferenceable(84) %this, ptr noundef nonnull align 8 dereferenceable(32) %header) local_unnamed_addr #3 align 2 {
entry:
  %value = getelementptr inbounds i8, ptr %header, i64 8
  %0 = load ptr, ptr %value, align 8
  %arrayidx.i.i.i.i.i = getelementptr inbounds i8, ptr %header, i64 31
  %1 = load i8, ptr %arrayidx.i.i.i.i.i, align 1
  %cmp.i.i.i.i = icmp ult i8 %1, 64
  %cond.i.i.i.i = select i1 %cmp.i.i.i.i, ptr %value, ptr %0
  %size_.i.i.i = getelementptr inbounds i8, ptr %header, i64 16
  %2 = load i64, ptr %size_.i.i.i, align 8
  %conv.i.i.i = zext i8 %1 to i64
  %sub.i.i.i = sub nsw i64 23, %conv.i.i.i
  %cmp.i.i.i = icmp ult i8 %1, 24
  %cond.i.i.i = select i1 %cmp.i.i.i, i64 %sub.i.i.i, i64 %2
  %add.ptr.i.i = getelementptr inbounds i8, ptr %cond.i.i.i.i, i64 %cond.i.i.i
  %call = tail call i64 @_ZNK8proxygen12HPACKContext8getIndexERKNS_15HPACKHeaderNameEN5folly5RangeIPKcEEb(ptr noundef nonnull align 8 dereferenceable(84) %this, ptr noundef nonnull align 8 dereferenceable(8) %header, ptr %cond.i.i.i.i, ptr %add.ptr.i.i, i1 noundef zeroext true)
  ret i64 %call
}